; ModuleID = '63/1144.c'
source_filename = "63/1144.c"
target datalayout = "e-m:e-p270:32:32-p271:32:32-p272:64:64-i64:64-f80:128-n8:16:32:64-S128"
target triple = "x86_64-pc-linux-gnu"

@.str = private unnamed_addr constant [6 x i8] c"%d %d\00", align 1
@.str.1 = private unnamed_addr constant [3 x i8] c"%d\00", align 1
@.str.2 = private unnamed_addr constant [4 x i8] c" %d\00", align 1
@.str.3 = private unnamed_addr constant [2 x i8] c"\0A\00", align 1

; Function Attrs: noinline nounwind uwtable
define dso_local i32 @main() #0 {
  %1 = alloca i32, align 4
  %2 = alloca [105 x [105 x i32]], align 16
  %3 = alloca [105 x [105 x i32]], align 16
  %4 = alloca [105 x [105 x i32]], align 16
  %5 = alloca i32, align 4
  %6 = alloca i32, align 4
  %7 = alloca i32, align 4
  %8 = alloca i32, align 4
  %9 = alloca i32, align 4
  %10 = alloca i32, align 4
  %11 = alloca i32, align 4
  %12 = alloca i32, align 4
  store i32 0, i32* %1, align 4
  store i32 0, i32* %12, align 4
  %13 = call i32 (i8*, ...) @__isoc99_scanf(i8* getelementptr inbounds ([6 x i8], [6 x i8]* @.str, i64 0, i64 0), i32* %5, i32* %6)
  store i32 0, i32* %9, align 4
  br label %14

14:                                               ; preds = %35, %0
  %15 = load i32, i32* %9, align 4
  %16 = load i32, i32* %5, align 4
  %17 = icmp slt i32 %15, %16
  br i1 %17, label %18, label %38

18:                                               ; preds = %14
  store i32 0, i32* %10, align 4
  br label %19

19:                                               ; preds = %31, %18
  %20 = load i32, i32* %10, align 4
  %21 = load i32, i32* %6, align 4
  %22 = icmp slt i32 %20, %21
  br i1 %22, label %23, label %34

23:                                               ; preds = %19
  %24 = load i32, i32* %9, align 4
  %25 = sext i32 %24 to i64
  %26 = getelementptr inbounds [105 x [105 x i32]], [105 x [105 x i32]]* %2, i64 0, i64 %25
  %27 = load i32, i32* %10, align 4
  %28 = sext i32 %27 to i64
  %29 = getelementptr inbounds [105 x i32], [105 x i32]* %26, i64 0, i64 %28
  %30 = call i32 (i8*, ...) @__isoc99_scanf(i8* getelementptr inbounds ([3 x i8], [3 x i8]* @.str.1, i64 0, i64 0), i32* %29)
  br label %31

31:                                               ; preds = %23
  %32 = load i32, i32* %10, align 4
  %33 = add nsw i32 %32, 1
  store i32 %33, i32* %10, align 4
  br label %19

34:                                               ; preds = %19
  br label %35

35:                                               ; preds = %34
  %36 = load i32, i32* %9, align 4
  %37 = add nsw i32 %36, 1
  store i32 %37, i32* %9, align 4
  br label %14

38:                                               ; preds = %14
  %39 = call i32 (i8*, ...) @__isoc99_scanf(i8* getelementptr inbounds ([6 x i8], [6 x i8]* @.str, i64 0, i64 0), i32* %7, i32* %8)
  store i32 0, i32* %9, align 4
  br label %40

40:                                               ; preds = %61, %38
  %41 = load i32, i32* %9, align 4
  %42 = load i32, i32* %7, align 4
  %43 = icmp slt i32 %41, %42
  br i1 %43, label %44, label %64

44:                                               ; preds = %40
  store i32 0, i32* %10, align 4
  br label %45

45:                                               ; preds = %57, %44
  %46 = load i32, i32* %10, align 4
  %47 = load i32, i32* %8, align 4
  %48 = icmp slt i32 %46, %47
  br i1 %48, label %49, label %60

49:                                               ; preds = %45
  %50 = load i32, i32* %9, align 4
  %51 = sext i32 %50 to i64
  %52 = getelementptr inbounds [105 x [105 x i32]], [105 x [105 x i32]]* %3, i64 0, i64 %51
  %53 = load i32, i32* %10, align 4
  %54 = sext i32 %53 to i64
  %55 = getelementptr inbounds [105 x i32], [105 x i32]* %52, i64 0, i64 %54
  %56 = call i32 (i8*, ...) @__isoc99_scanf(i8* getelementptr inbounds ([3 x i8], [3 x i8]* @.str.1, i64 0, i64 0), i32* %55)
  br label %57

57:                                               ; preds = %49
  %58 = load i32, i32* %10, align 4
  %59 = add nsw i32 %58, 1
  store i32 %59, i32* %10, align 4
  br label %45

60:                                               ; preds = %45
  br label %61

61:                                               ; preds = %60
  %62 = load i32, i32* %9, align 4
  %63 = add nsw i32 %62, 1
  store i32 %63, i32* %9, align 4
  br label %40

64:                                               ; preds = %40
  store i32 0, i32* %9, align 4
  br label %65

65:                                               ; preds = %112, %64
  %66 = load i32, i32* %9, align 4
  %67 = load i32, i32* %5, align 4
  %68 = icmp slt i32 %66, %67
  br i1 %68, label %69, label %115

69:                                               ; preds = %65
  store i32 0, i32* %10, align 4
  br label %70

70:                                               ; preds = %108, %69
  %71 = load i32, i32* %10, align 4
  %72 = load i32, i32* %8, align 4
  %73 = icmp slt i32 %71, %72
  br i1 %73, label %74, label %111

74:                                               ; preds = %70
  store i32 0, i32* %12, align 4
  store i32 0, i32* %11, align 4
  br label %75

75:                                               ; preds = %97, %74
  %76 = load i32, i32* %11, align 4
  %77 = load i32, i32* %7, align 4
  %78 = icmp slt i32 %76, %77
  br i1 %78, label %79, label %100

79:                                               ; preds = %75
  %80 = load i32, i32* %12, align 4
  %81 = load i32, i32* %9, align 4
  %82 = sext i32 %81 to i64
  %83 = getelementptr inbounds [105 x [105 x i32]], [105 x [105 x i32]]* %2, i64 0, i64 %82
  %84 = load i32, i32* %11, align 4
  %85 = sext i32 %84 to i64
  %86 = getelementptr inbounds [105 x i32], [105 x i32]* %83, i64 0, i64 %85
  %87 = load i32, i32* %86, align 4
  %88 = load i32, i32* %11, align 4
  %89 = sext i32 %88 to i64
  %90 = getelementptr inbounds [105 x [105 x i32]], [105 x [105 x i32]]* %3, i64 0, i64 %89
  %91 = load i32, i32* %10, align 4
  %92 = sext i32 %91 to i64
  %93 = getelementptr inbounds [105 x i32], [105 x i32]* %90, i64 0, i64 %92
  %94 = load i32, i32* %93, align 4
  %95 = mul nsw i32 %87, %94
  %96 = add nsw i32 %80, %95
  store i32 %96, i32* %12, align 4
  br label %97

97:                                               ; preds = %79
  %98 = load i32, i32* %11, align 4
  %99 = add nsw i32 %98, 1
  store i32 %99, i32* %11, align 4
  br label %75

100:                                              ; preds = %75
  %101 = load i32, i32* %12, align 4
  %102 = load i32, i32* %9, align 4
  %103 = sext i32 %102 to i64
  %104 = getelementptr inbounds [105 x [105 x i32]], [105 x [105 x i32]]* %4, i64 0, i64 %103
  %105 = load i32, i32* %10, align 4
  %106 = sext i32 %105 to i64
  %107 = getelementptr inbounds [105 x i32], [105 x i32]* %104, i64 0, i64 %106
  store i32 %101, i32* %107, align 4
  br label %108

108:                                              ; preds = %100
  %109 = load i32, i32* %10, align 4
  %110 = add nsw i32 %109, 1
  store i32 %110, i32* %10, align 4
  br label %70

111:                                              ; preds = %70
  br label %112

112:                                              ; preds = %111
  %113 = load i32, i32* %9, align 4
  %114 = add nsw i32 %113, 1
  store i32 %114, i32* %9, align 4
  br label %65

115:                                              ; preds = %65
  store i32 0, i32* %9, align 4
  br label %116

116:                                              ; preds = %145, %115
  %117 = load i32, i32* %9, align 4
  %118 = load i32, i32* %5, align 4
  %119 = icmp slt i32 %117, %118
  br i1 %119, label %120, label %148

120:                                              ; preds = %116
  %121 = load i32, i32* %9, align 4
  %122 = sext i32 %121 to i64
  %123 = getelementptr inbounds [105 x [105 x i32]], [105 x [105 x i32]]* %4, i64 0, i64 %122
  %124 = getelementptr inbounds [105 x i32], [105 x i32]* %123, i64 0, i64 0
  %125 = load i32, i32* %124, align 4
  %126 = call i32 (i8*, ...) @printf(i8* getelementptr inbounds ([3 x i8], [3 x i8]* @.str.1, i64 0, i64 0), i32 %125)
  store i32 1, i32* %10, align 4
  br label %127

127:                                              ; preds = %140, %120
  %128 = load i32, i32* %10, align 4
  %129 = load i32, i32* %8, align 4
  %130 = icmp slt i32 %128, %129
  br i1 %130, label %131, label %143

131:                                              ; preds = %127
  %132 = load i32, i32* %9, align 4
  %133 = sext i32 %132 to i64
  %134 = getelementptr inbounds [105 x [105 x i32]], [105 x [105 x i32]]* %4, i64 0, i64 %133
  %135 = load i32, i32* %10, align 4
  %136 = sext i32 %135 to i64
  %137 = getelementptr inbounds [105 x i32], [105 x i32]* %134, i64 0, i64 %136
  %138 = load i32, i32* %137, align 4
  %139 = call i32 (i8*, ...) @printf(i8* getelementptr inbounds ([4 x i8], [4 x i8]* @.str.2, i64 0, i64 0), i32 %138)
  br label %140

140:                                              ; preds = %131
  %141 = load i32, i32* %10, align 4
  %142 = add nsw i32 %141, 1
  store i32 %142, i32* %10, align 4
  br label %127

143:                                              ; preds = %127
  %144 = call i32 (i8*, ...) @printf(i8* getelementptr inbounds ([2 x i8], [2 x i8]* @.str.3, i64 0, i64 0))
  br label %145

145:                                              ; preds = %143
  %146 = load i32, i32* %9, align 4
  %147 = add nsw i32 %146, 1
  store i32 %147, i32* %9, align 4
  br label %116

148:                                              ; preds = %116
  ret i32 0
}

declare dso_local i32 @__isoc99_scanf(i8*, ...) #1

declare dso_local i32 @printf(i8*, ...) #1


!llvm.module.flags = !{!0}
!llvm.ident = !{!1}

!0 = !{i32 1, !"wchar_size", i32 4}
!1 = !{!"clang version 10.0.0-4ubuntu1 "}
